ARM GAS  C:\Users\leone\AppData\Local\Temp\cchNKjml.s 			page 1


   1              		.cpu cortex-m4
   2              		.arch armv7e-m
   3              		.fpu fpv4-sp-d16
   4              		.eabi_attribute 27, 1
   5              		.eabi_attribute 28, 1
   6              		.eabi_attribute 20, 1
   7              		.eabi_attribute 21, 1
   8              		.eabi_attribute 23, 3
   9              		.eabi_attribute 24, 1
  10              		.eabi_attribute 25, 1
  11              		.eabi_attribute 26, 1
  12              		.eabi_attribute 30, 1
  13              		.eabi_attribute 34, 1
  14              		.eabi_attribute 18, 4
  15              		.file	"main.c"
  16              		.text
  17              	.Ltext0:
  18              		.cfi_sections	.debug_frame
  19              		.file 1 "Src/main.c"
  20              		.section	.text.main,"ax",%progbits
  21              		.align	1
  22              		.global	main
  23              		.syntax unified
  24              		.thumb
  25              		.thumb_func
  27              	main:
  28              	.LFB0:
   1:Src/main.c    **** #include <stdint.h>
   2:Src/main.c    **** #include "rcc.h"
   3:Src/main.c    **** #include "gpio.h"
   4:Src/main.c    **** 
   5:Src/main.c    **** int main(void)
   6:Src/main.c    **** {
  29              		.loc 1 6 1 view -0
  30              		.cfi_startproc
  31              		@ args = 0, pretend = 0, frame = 0
  32              		@ frame_needed = 0, uses_anonymous_args = 0
  33              		@ link register save eliminated.
   7:Src/main.c    ****   uint32_t button_state;
  34              		.loc 1 7 3 view .LVU1
   8:Src/main.c    ****   
   9:Src/main.c    ****   RCC->AHB1ENR |=  RCC_AHB1ENR_GPIOA_EN;                // Enable clock port A (Led)
  35              		.loc 1 9 3 view .LVU2
  36              		.loc 1 9 6 is_stmt 0 view .LVU3
  37 0000 164B     		ldr	r3, .L5
  38 0002 1A6B     		ldr	r2, [r3, #48]
  39              		.loc 1 9 16 view .LVU4
  40 0004 42F00102 		orr	r2, r2, #1
  41 0008 1A63     		str	r2, [r3, #48]
  10:Src/main.c    ****   RCC->AHB1ENR |=  RCC_AHB1ENR_GPIOC_EN;                // Enable clock port C (Button)
  42              		.loc 1 10 3 is_stmt 1 view .LVU5
  43              		.loc 1 10 6 is_stmt 0 view .LVU6
  44 000a 1A6B     		ldr	r2, [r3, #48]
  45              		.loc 1 10 16 view .LVU7
  46 000c 42F00402 		orr	r2, r2, #4
  47 0010 1A63     		str	r2, [r3, #48]
  11:Src/main.c    ****   GPIOA->MODER &= ~(GPIO_MODER_05_OUTPUT);              // Clen registers port A
ARM GAS  C:\Users\leone\AppData\Local\Temp\cchNKjml.s 			page 2


  48              		.loc 1 11 3 is_stmt 1 view .LVU8
  49              		.loc 1 11 8 is_stmt 0 view .LVU9
  50 0012 134A     		ldr	r2, .L5+4
  51 0014 1168     		ldr	r1, [r2]
  52              		.loc 1 11 16 view .LVU10
  53 0016 21F48061 		bic	r1, r1, #1024
  54 001a 1160     		str	r1, [r2]
  12:Src/main.c    ****   GPIOA->MODER |=  GPIO_MODER_05_OUTPUT;                // Set output pin 5
  55              		.loc 1 12 3 is_stmt 1 view .LVU11
  56              		.loc 1 12 8 is_stmt 0 view .LVU12
  57 001c 1168     		ldr	r1, [r2]
  58              		.loc 1 12 16 view .LVU13
  59 001e 41F48061 		orr	r1, r1, #1024
  60 0022 1160     		str	r1, [r2]
  13:Src/main.c    ****   GPIOC->MODER &= ~(GPIO_MODER_INPUT);                  // Clean resgister port C    
  61              		.loc 1 13 3 is_stmt 1 view .LVU14
  62              		.loc 1 13 8 is_stmt 0 view .LVU15
  63 0024 02F50062 		add	r2, r2, #2048
  64 0028 1168     		ldr	r1, [r2]
  65              		.loc 1 13 16 view .LVU16
  66 002a 1160     		str	r1, [r2]
  14:Src/main.c    ****   GPIOC->PUPDR |= GPIO_PUPDR_NO_PUPD;                   // No pull up, pull down
  67              		.loc 1 14 3 is_stmt 1 view .LVU17
  68              		.loc 1 14 8 is_stmt 0 view .LVU18
  69 002c D168     		ldr	r1, [r2, #12]
  70              		.loc 1 14 16 view .LVU19
  71 002e D160     		str	r1, [r2, #12]
  15:Src/main.c    ****   RCC->APB2ENR |= RCC_APB2ENR_SYSCFGEN_ClockEnabled;
  72              		.loc 1 15 3 is_stmt 1 view .LVU20
  73              		.loc 1 15 6 is_stmt 0 view .LVU21
  74 0030 5A6C     		ldr	r2, [r3, #68]
  75              		.loc 1 15 16 view .LVU22
  76 0032 42F48042 		orr	r2, r2, #16384
  77 0036 5A64     		str	r2, [r3, #68]
  78 0038 04E0     		b	.L2
  79              	.LVL0:
  80              	.L3:
  16:Src/main.c    **** 
  17:Src/main.c    **** 
  18:Src/main.c    ****   while (1)
  19:Src/main.c    ****   {
  20:Src/main.c    ****     button_state = GPIOC->IDR;
  21:Src/main.c    ****     if (button_state == 0x00002000)
  22:Src/main.c    ****     {
  23:Src/main.c    ****       GPIOA->ODR   &= ~(GPIO_ODR_05_ON);
  24:Src/main.c    ****     }
  25:Src/main.c    ****     else
  26:Src/main.c    ****     {
  27:Src/main.c    ****       GPIOA->ODR   |=  GPIO_ODR_05_ON;
  81              		.loc 1 27 7 is_stmt 1 view .LVU23
  82              		.loc 1 27 12 is_stmt 0 view .LVU24
  83 003a 094A     		ldr	r2, .L5+4
  84 003c 5369     		ldr	r3, [r2, #20]
  85              	.LVL1:
  86              		.loc 1 27 20 view .LVU25
  87 003e 43F02003 		orr	r3, r3, #32
  88 0042 5361     		str	r3, [r2, #20]
ARM GAS  C:\Users\leone\AppData\Local\Temp\cchNKjml.s 			page 3


  89              	.LVL2:
  90              	.L2:
  18:Src/main.c    ****   {
  91              		.loc 1 18 3 is_stmt 1 view .LVU26
  20:Src/main.c    ****     if (button_state == 0x00002000)
  92              		.loc 1 20 5 view .LVU27
  20:Src/main.c    ****     if (button_state == 0x00002000)
  93              		.loc 1 20 18 is_stmt 0 view .LVU28
  94 0044 074B     		ldr	r3, .L5+8
  95 0046 1B69     		ldr	r3, [r3, #16]
  96              	.LVL3:
  21:Src/main.c    ****     {
  97              		.loc 1 21 5 is_stmt 1 view .LVU29
  21:Src/main.c    ****     {
  98              		.loc 1 21 8 is_stmt 0 view .LVU30
  99 0048 B3F5005F 		cmp	r3, #8192
 100 004c F5D1     		bne	.L3
  23:Src/main.c    ****     }
 101              		.loc 1 23 7 is_stmt 1 view .LVU31
  23:Src/main.c    ****     }
 102              		.loc 1 23 12 is_stmt 0 view .LVU32
 103 004e 044A     		ldr	r2, .L5+4
 104 0050 5369     		ldr	r3, [r2, #20]
 105              	.LVL4:
  23:Src/main.c    ****     }
 106              		.loc 1 23 20 view .LVU33
 107 0052 23F02003 		bic	r3, r3, #32
 108 0056 5361     		str	r3, [r2, #20]
 109 0058 F4E7     		b	.L2
 110              	.L6:
 111 005a 00BF     		.align	2
 112              	.L5:
 113 005c 00380240 		.word	1073887232
 114 0060 00000240 		.word	1073872896
 115 0064 00080240 		.word	1073874944
 116              		.cfi_endproc
 117              	.LFE0:
 119              		.text
 120              	.Letext0:
 121              		.file 2 "C:/Program Files (x86)/Arm GNU Toolchain arm-none-eabi/13.2 Rel1/arm-none-eabi/include/ma
 122              		.file 3 "C:/Program Files (x86)/Arm GNU Toolchain arm-none-eabi/13.2 Rel1/arm-none-eabi/include/sy
 123              		.file 4 "Inc/rcc.h"
 124              		.file 5 "Inc/gpio.h"
ARM GAS  C:\Users\leone\AppData\Local\Temp\cchNKjml.s 			page 4


DEFINED SYMBOLS
                            *ABS*:00000000 main.c
C:\Users\leone\AppData\Local\Temp\cchNKjml.s:21     .text.main:00000000 $t
C:\Users\leone\AppData\Local\Temp\cchNKjml.s:27     .text.main:00000000 main
C:\Users\leone\AppData\Local\Temp\cchNKjml.s:113    .text.main:0000005c $d

NO UNDEFINED SYMBOLS
